target datalayout = "e-m:e-p270:32:32-p271:32:32-p272:64:64-i64:64-i128:128-f80:128-n8:16:32:64-S128"
target triple = "x86_64-pc-linux-gnu"

; Function Attrs: inlinehint mustprogress nounwind uwtable
define internal noundef signext i8 @_ZL9U_FAILURE10UErrorCode(i32 noundef %0) #4 {
  %2 = alloca i32, align 4
  store i32 %0, ptr %2, align 4, !tbaa !23
  %3 = load i32, ptr %2, align 4, !tbaa !23
  %4 = icmp sgt i32 %3, 0
  %5 = zext i1 %4 to i8
  ret i8 %5
}

; Function Attrs: mustprogress uwtable
define noundef i32 @_ZN6icu_7714StandardPlural15indexFromStringERKNS_13UnicodeStringER10UErrorCode(ptr noundef nonnull align 8 dereferenceable(64) %0, ptr noundef nonnull align 4 dereferenceable(4) %1) #2 align 2 {
  %3 = alloca i32, align 4
  %4 = alloca ptr, align 8
  %5 = alloca ptr, align 8
  %6 = alloca i32, align 4
  %7 = alloca i32, align 4
  store ptr %0, ptr %4, align 8, !tbaa !11
  store ptr %1, ptr %5, align 8, !tbaa !22
  %8 = load ptr, ptr %5, align 8, !tbaa !22
  %9 = load i32, ptr %8, align 4, !tbaa !23
  %10 = call noundef signext i8 @_ZL9U_FAILURE10UErrorCode(i32 noundef %9)
  %11 = icmp ne i8 %10, 0
  br i1 %11, label %12, label %13

12:                                               ; preds = %2
  store i32 5, ptr %3, align 4
  br label %23

13:                                               ; preds = %2
  call void @llvm.lifetime.start.p0(i64 4, ptr %6) #8
  %14 = load ptr, ptr %4, align 8, !tbaa !11
  %15 = call noundef i32 @_ZN6icu_7714StandardPlural25indexOrNegativeFromStringERKNS_13UnicodeStringE(ptr noundef nonnull align 8 dereferenceable(64) %14)
  store i32 %15, ptr %6, align 4, !tbaa !13
  %16 = load i32, ptr %6, align 4, !tbaa !13
  %17 = icmp sge i32 %16, 0
  br i1 %17, label %18, label %20

18:                                               ; preds = %13
  %19 = load i32, ptr %6, align 4, !tbaa !13
  store i32 %19, ptr %3, align 4
  store i32 1, ptr %7, align 4
  br label %22

20:                                               ; preds = %13
  %21 = load ptr, ptr %5, align 8, !tbaa !22
  store i32 1, ptr %21, align 4, !tbaa !23
  store i32 5, ptr %3, align 4
  store i32 1, ptr %7, align 4
  br label %22

22:                                               ; preds = %20, %18
  call void @llvm.lifetime.end.p0(i64 4, ptr %6) #8
  br label %23

23:                                               ; preds = %22, %12
  %24 = load i32, ptr %3, align 4
  ret i32 %24
}